target datalayout = "e-m:e-p270:32:32-p271:32:32-p272:64:64-i64:64-i128:128-f80:128-n8:16:32:64-S128"
target triple = "x86_64-pc-linux-gnu"

%struct._typeobject = type { %struct.PyVarObject, ptr, i64, i64, ptr, i64, ptr, ptr, ptr, ptr, ptr, ptr, ptr, ptr, ptr, ptr, ptr, ptr, ptr, i64, ptr, ptr, ptr, ptr, i64, ptr, ptr, ptr, ptr, ptr, ptr, ptr, ptr, ptr, i64, ptr, ptr, ptr, ptr, ptr, ptr, ptr, ptr, ptr, ptr, ptr, i32, ptr, ptr, i8, i16 }
%struct.PyVarObject = type { %struct._object, i64 }
%struct._object = type { %union.anon, ptr }
%union.anon = type { i64 }

@.str.19 = private unnamed_addr constant [19 x i8] c"PyType_Check(type)\00", align 1
@.str.20 = private unnamed_addr constant [36 x i8] c"../cpython/Modules/_testcapi/type.c\00", align 1
@__PRETTY_FUNCTION__.get_type_name = private unnamed_addr constant [48 x i8] c"PyObject *get_type_name(PyObject *, PyObject *)\00", align 1

; Function Attrs: inlinehint nounwind uwtable
define internal i32 @PyType_HasFeature(ptr noundef %0, i64 noundef %1) #2 {
  %3 = alloca ptr, align 8
  %4 = alloca i64, align 8
  %5 = alloca i64, align 8
  store ptr %0, ptr %3, align 8, !tbaa !26
  store i64 %1, ptr %4, align 8, !tbaa !30
  call void @llvm.lifetime.start.p0(i64 8, ptr %5) #7
  %6 = load ptr, ptr %3, align 8, !tbaa !26
  %7 = getelementptr inbounds nuw %struct._typeobject, ptr %6, i32 0, i32 19
  %8 = load i64, ptr %7, align 8, !tbaa !31
  store i64 %8, ptr %5, align 8, !tbaa !30
  %9 = load i64, ptr %5, align 8, !tbaa !30
  %10 = load i64, ptr %4, align 8, !tbaa !30
  %11 = and i64 %9, %10
  %12 = icmp ne i64 %11, 0
  %13 = zext i1 %12 to i32
  call void @llvm.lifetime.end.p0(i64 8, ptr %5) #7
  ret i32 %13
}

; Function Attrs: inlinehint nounwind uwtable
define internal ptr @_Py_TYPE(ptr noundef %0) #2 {
  %2 = alloca ptr, align 8
  store ptr %0, ptr %2, align 8, !tbaa !3
  %3 = load ptr, ptr %2, align 8, !tbaa !3
  %4 = getelementptr inbounds nuw %struct._object, ptr %3, i32 0, i32 1
  %5 = load ptr, ptr %4, align 8, !tbaa !32
  ret ptr %5
}

; Function Attrs: inlinehint nounwind uwtable
define internal i32 @PyType_Check(ptr noundef %0) #2 {
  %2 = alloca ptr, align 8
  store ptr %0, ptr %2, align 8, !tbaa !3
  %3 = load ptr, ptr %2, align 8, !tbaa !3
  %4 = call ptr @_Py_TYPE(ptr noundef %3)
  %5 = call i32 @PyType_HasFeature(ptr noundef %4, i64 noundef 2147483648)
  ret i32 %5
}

; Function Attrs: nounwind uwtable
define internal ptr @get_type_name(ptr noundef %0, ptr noundef %1) #0 {
  %3 = alloca ptr, align 8
  %4 = alloca ptr, align 8
  store ptr %0, ptr %3, align 8, !tbaa !3
  store ptr %1, ptr %4, align 8, !tbaa !3
  %5 = load ptr, ptr %4, align 8, !tbaa !3
  %6 = call i32 @PyType_Check(ptr noundef %5)
  %7 = icmp ne i32 %6, 0
  br i1 %7, label %8, label %9

8:                                                ; preds = %2
  br label %11

9:                                                ; preds = %2
  call void @__assert_fail(ptr noundef @.str.19, ptr noundef @.str.20, i32 noundef 26, ptr noundef @__PRETTY_FUNCTION__.get_type_name) #6
  unreachable

10:                                               ; No predecessors!
  br label %11

11:                                               ; preds = %10, %8
  %12 = load ptr, ptr %4, align 8, !tbaa !3
  %13 = call ptr @PyType_GetName(ptr noundef %12)
  ret ptr %13
}