; Function Attrs: nounwind uwtable
define internal ptr @get_type_name(ptr readnone captures(none) %0, ptr noundef %1) #0 {
  %3 = getelementptr i8, ptr %1, i64 8
  %.val = load ptr, ptr %3, align 8, !tbaa !3
  %4 = getelementptr i8, ptr %.val, i64 168
  %.val.val = load i64, ptr %4, align 8, !tbaa !9
  %5 = and i64 %.val.val, 2147483648
  %.not2 = icmp eq i64 %5, 0
  br i1 %.not2, label %6, label %7

6:                                                ; preds = %2
  tail call void @__assert_fail(ptr noundef nonnull @.str.19, ptr noundef nonnull @.str.20, i32 noundef 26, ptr noundef nonnull @__PRETTY_FUNCTION__.get_type_name) #4
  unreachable

7:                                                ; preds = %2
  %8 = tail call ptr @PyType_GetName(ptr noundef nonnull %1) #3
  ret ptr %8
}